target datalayout = "e-m:e-p270:32:32-p271:32:32-p272:64:64-i64:64-i128:128-f80:128-n8:16:32:64-S128"
target triple = "x86_64-pc-linux-gnu"

%class.anon.14 = type { i8 }

@_ZZNK4pbrt14DielectricBxDF8Sample_fENS_7Vector3IfEEfNS_6Point2IfEENS_13TransportModeENS_18BxDFReflTransFlagsEE7numTrue = internal thread_local global i64 0, align 8
@_ZZNK4pbrt14DielectricBxDF8Sample_fENS_7Vector3IfEEfNS_6Point2IfEENS_13TransportModeENS_18BxDFReflTransFlagsEE5total = internal thread_local global i64 0, align 8
@.str.80 = private unnamed_addr constant [143 x i8] c"generated/home/dtcxzyw/WorkSpace/Projects/compilers/llvm-opt-benchmark/bench/pbrt-v4/pbrt-v4/src/pbrt/bxdfs.cpp 104: CHECK_RARE failed: !valid\00", align 1

; Function Attrs: inlinehint mustprogress uwtable
define internal void @"_ZZNK4pbrt14DielectricBxDF8Sample_fENS_7Vector3IfEEfNS_6Point2IfEENS_13TransportModeENS_18BxDFReflTransFlagsEENK3$_0clERNS_16StatsAccumulatorE"(ptr noundef nonnull align 1 dereferenceable(1) %0, ptr noundef nonnull align 8 dereferenceable(8) %1) #7 align 2 {
  %3 = alloca ptr, align 8
  %4 = alloca ptr, align 8
  store ptr %0, ptr %3, align 8, !tbaa !81
  store ptr %1, ptr %4, align 8, !tbaa !448
  %5 = load ptr, ptr %4, align 8, !tbaa !448
  %6 = call align 8 ptr @llvm.threadlocal.address.p0(ptr align 8 @_ZZNK4pbrt14DielectricBxDF8Sample_fENS_7Vector3IfEEfNS_6Point2IfEENS_13TransportModeENS_18BxDFReflTransFlagsEE7numTrue)
  %7 = load i64, ptr %6, align 8, !tbaa !77
  %8 = call align 8 ptr @llvm.threadlocal.address.p0(ptr align 8 @_ZZNK4pbrt14DielectricBxDF8Sample_fENS_7Vector3IfEEfNS_6Point2IfEENS_13TransportModeENS_18BxDFReflTransFlagsEE5total)
  %9 = load i64, ptr %8, align 8, !tbaa !77
  call void @_ZN4pbrt16StatsAccumulator15ReportRareCheckEPKcfll(ptr noundef nonnull align 8 dereferenceable(8) %5, ptr noundef @.str.80, float noundef 0x3EE4F8B580000000, i64 noundef %7, i64 noundef %9)
  %10 = call align 8 ptr @llvm.threadlocal.address.p0(ptr align 8 @_ZZNK4pbrt14DielectricBxDF8Sample_fENS_7Vector3IfEEfNS_6Point2IfEENS_13TransportModeENS_18BxDFReflTransFlagsEE5total)
  store i64 0, ptr %10, align 8, !tbaa !77
  %11 = call align 8 ptr @llvm.threadlocal.address.p0(ptr align 8 @_ZZNK4pbrt14DielectricBxDF8Sample_fENS_7Vector3IfEEfNS_6Point2IfEENS_13TransportModeENS_18BxDFReflTransFlagsEE7numTrue)
  store i64 0, ptr %11, align 8, !tbaa !77
  ret void
}

; Function Attrs: inlinehint mustprogress uwtable
define internal void @"_ZZNK4pbrt14DielectricBxDF8Sample_fENS_7Vector3IfEEfNS_6Point2IfEENS_13TransportModeENS_18BxDFReflTransFlagsEEN3$_08__invokeERNS_16StatsAccumulatorE"(ptr noundef nonnull align 8 dereferenceable(8) %0) #7 align 2 {
  %2 = alloca ptr, align 8
  %3 = alloca %class.anon.14, align 1
  store ptr %0, ptr %2, align 8, !tbaa !448
  %4 = load ptr, ptr %2, align 8
  call void @"_ZZNK4pbrt14DielectricBxDF8Sample_fENS_7Vector3IfEEfNS_6Point2IfEENS_13TransportModeENS_18BxDFReflTransFlagsEENK3$_0clERNS_16StatsAccumulatorE"(ptr noundef nonnull align 1 dereferenceable(1) %3, ptr noundef nonnull align 8 dereferenceable(8) %4)
  ret void
}