; Function Attrs: inlinehint mustprogress uwtable
define internal void @"_ZZNK4pbrt14DielectricBxDF8Sample_fENS_7Vector3IfEEfNS_6Point2IfEENS_13TransportModeENS_18BxDFReflTransFlagsEEN3$_08__invokeERNS_16StatsAccumulatorE"(ptr noundef nonnull align 8 dereferenceable(8) %0) #11 align 2 {
  %2 = tail call align 8 ptr @llvm.threadlocal.address.p0(ptr align 8 @_ZZNK4pbrt14DielectricBxDF8Sample_fENS_7Vector3IfEEfNS_6Point2IfEENS_13TransportModeENS_18BxDFReflTransFlagsEE7numTrue)
  %3 = load i64, ptr %2, align 8, !tbaa !84
  %4 = tail call align 8 ptr @llvm.threadlocal.address.p0(ptr align 8 @_ZZNK4pbrt14DielectricBxDF8Sample_fENS_7Vector3IfEEfNS_6Point2IfEENS_13TransportModeENS_18BxDFReflTransFlagsEE5total)
  %5 = load i64, ptr %4, align 8, !tbaa !84
  tail call void @_ZN4pbrt16StatsAccumulator15ReportRareCheckEPKcfll(ptr noundef nonnull align 8 dereferenceable(8) %0, ptr noundef nonnull @.str.80, float noundef 0x3EE4F8B580000000, i64 noundef %3, i64 noundef %5)
  store i64 0, ptr %4, align 8, !tbaa !84
  store i64 0, ptr %2, align 8, !tbaa !84
  ret void
}